target datalayout = "e-m:e-p270:32:32-p271:32:32-p272:64:64-i64:64-i128:128-f80:128-n8:16:32:64-S128"
target triple = "x86_64-pc-linux-gnu"

%struct.Gia_Man_t_ = type { ptr, ptr, i32, i32, i32, i32, ptr, ptr, i32, i32, i32, ptr, ptr, %struct.Vec_Int_t_, %struct.Vec_Int_t_, i32, i32, i32, %struct.Vec_Int_t_, ptr, ptr, ptr, i32, i32, i32, i32, ptr, ptr, ptr, ptr, ptr, i32, i32, ptr, i32, ptr, ptr, ptr, ptr, ptr, ptr, ptr, ptr, ptr, ptr, ptr, ptr, ptr, ptr, ptr, ptr, ptr, ptr, %struct.Vec_Int_t_, %struct.Vec_Int_t_, ptr, ptr, ptr, ptr, ptr, ptr, ptr, ptr, ptr, ptr, ptr, ptr, ptr, ptr, ptr, ptr, ptr, ptr, ptr, ptr, ptr, i32, float, float, ptr, ptr, i32, ptr, ptr, ptr, ptr, ptr, ptr, ptr, ptr, ptr, ptr, ptr, ptr, ptr, ptr, ptr, i64, i64, ptr, ptr, i32, i32, i32, i32, i32, i32, i32, i32, i32, i32, i32, i32, ptr, ptr, ptr, ptr, ptr, ptr, ptr, ptr, i32, i32, i32, ptr, i32, i32, ptr, ptr, ptr, ptr, ptr, ptr, i32, i32, ptr, %struct.Vec_Int_t_, %struct.Vec_Int_t_, %struct.Vec_Int_t_, ptr, ptr, ptr }
%struct.Vec_Int_t_ = type { i32, i32, ptr }
%struct.Gia_Obj_t_ = type <{ i64, i32 }>

@.str = private unnamed_addr constant [9 x i8] c"stats:  \00", align 1
@.str.1 = private unnamed_addr constant [21 x i8] c"xor =%8d %6.2f %%   \00", align 1
@.str.2 = private unnamed_addr constant [21 x i8] c"mux =%8d %6.2f %%   \00", align 1
@.str.3 = private unnamed_addr constant [21 x i8] c"and =%8d %6.2f %%   \00", align 1
@.str.4 = private unnamed_addr constant [11 x i8] c"obj =%8d  \00", align 1
@stdout = external global ptr, align 8

; Function Attrs: nounwind uwtable
define internal i32 @Vec_IntSize(ptr noundef %0) #0 {
  %2 = alloca ptr, align 8
  store ptr %0, ptr %2, align 8
  %3 = load ptr, ptr %2, align 8
  %4 = getelementptr inbounds %struct.Vec_Int_t_, ptr %3, i32 0, i32 1
  %5 = load i32, ptr %4, align 4
  ret i32 %5
}

; Function Attrs: nounwind uwtable
define internal i32 @Gia_ObjIsAnd(ptr noundef %0) #0 {
  %2 = alloca ptr, align 8
  store ptr %0, ptr %2, align 8
  %3 = load ptr, ptr %2, align 8
  %4 = load i64, ptr %3, align 4
  %5 = lshr i64 %4, 31
  %6 = and i64 %5, 1
  %7 = trunc i64 %6 to i32
  %8 = icmp ne i32 %7, 0
  br i1 %8, label %15, label %9

9:                                                ; preds = %1
  %10 = load ptr, ptr %2, align 8
  %11 = load i64, ptr %10, align 4
  %12 = and i64 %11, 536870911
  %13 = trunc i64 %12 to i32
  %14 = icmp ne i32 %13, 536870911
  br label %15

15:                                               ; preds = %9, %1
  %16 = phi i1 [ false, %1 ], [ %14, %9 ]
  %17 = zext i1 %16 to i32
  ret i32 %17
}

; Function Attrs: nounwind uwtable
define internal ptr @Gia_ManObj(ptr noundef %0, i32 noundef %1) #0 {
  %3 = alloca ptr, align 8
  %4 = alloca i32, align 4
  store ptr %0, ptr %3, align 8
  store i32 %1, ptr %4, align 4
  %5 = load ptr, ptr %3, align 8
  %6 = getelementptr inbounds %struct.Gia_Man_t_, ptr %5, i32 0, i32 6
  %7 = load ptr, ptr %6, align 8
  %8 = load i32, ptr %4, align 4
  %9 = sext i32 %8 to i64
  %10 = getelementptr inbounds %struct.Gia_Obj_t_, ptr %7, i64 %9
  ret ptr %10
}

; Function Attrs: nounwind uwtable
define internal i32 @Gia_ManBufNum(ptr noundef %0) #0 {
  %2 = alloca ptr, align 8
  store ptr %0, ptr %2, align 8
  %3 = load ptr, ptr %2, align 8
  %4 = getelementptr inbounds %struct.Gia_Man_t_, ptr %3, i32 0, i32 10
  %5 = load i32, ptr %4, align 8
  ret i32 %5
}

; Function Attrs: nounwind uwtable
define internal i32 @Gia_ManAndNum(ptr noundef %0) #0 {
  %2 = alloca ptr, align 8
  store ptr %0, ptr %2, align 8
  %3 = load ptr, ptr %2, align 8
  %4 = getelementptr inbounds %struct.Gia_Man_t_, ptr %3, i32 0, i32 4
  %5 = load i32, ptr %4, align 8
  %6 = load ptr, ptr %2, align 8
  %7 = getelementptr inbounds %struct.Gia_Man_t_, ptr %6, i32 0, i32 11
  %8 = load ptr, ptr %7, align 8
  %9 = call i32 @Vec_IntSize(ptr noundef %8)
  %10 = sub nsw i32 %5, %9
  %11 = load ptr, ptr %2, align 8
  %12 = getelementptr inbounds %struct.Gia_Man_t_, ptr %11, i32 0, i32 12
  %13 = load ptr, ptr %12, align 8
  %14 = call i32 @Vec_IntSize(ptr noundef %13)
  %15 = sub nsw i32 %10, %14
  %16 = sub nsw i32 %15, 1
  ret i32 %16
}

; Function Attrs: nounwind uwtable
define void @Gia_ManCountMuxXor(ptr noundef %0, ptr noundef %1, ptr noundef %2) #0 {
  %4 = alloca ptr, align 8
  %5 = alloca ptr, align 8
  %6 = alloca ptr, align 8
  %7 = alloca ptr, align 8
  %8 = alloca ptr, align 8
  %9 = alloca ptr, align 8
  %10 = alloca i32, align 4
  store ptr %0, ptr %4, align 8
  store ptr %1, ptr %5, align 8
  store ptr %2, ptr %6, align 8
  %11 = load ptr, ptr %6, align 8
  store i32 0, ptr %11, align 4
  %12 = load ptr, ptr %5, align 8
  store i32 0, ptr %12, align 4
  store i32 0, ptr %10, align 4
  br label %13

13:                                               ; preds = %50, %3
  %14 = load i32, ptr %10, align 4
  %15 = load ptr, ptr %4, align 8
  %16 = getelementptr inbounds %struct.Gia_Man_t_, ptr %15, i32 0, i32 4
  %17 = load i32, ptr %16, align 8
  %18 = icmp slt i32 %14, %17
  br i1 %18, label %19, label %24

19:                                               ; preds = %13
  %20 = load ptr, ptr %4, align 8
  %21 = load i32, ptr %10, align 4
  %22 = call ptr @Gia_ManObj(ptr noundef %20, i32 noundef %21)
  store ptr %22, ptr %7, align 8
  %23 = icmp ne ptr %22, null
  br label %24

24:                                               ; preds = %19, %13
  %25 = phi i1 [ false, %13 ], [ %23, %19 ]
  br i1 %25, label %26, label %53

26:                                               ; preds = %24
  %27 = load ptr, ptr %7, align 8
  %28 = call i32 @Gia_ObjIsAnd(ptr noundef %27)
  %29 = icmp ne i32 %28, 0
  br i1 %29, label %31, label %30

30:                                               ; preds = %26
  br label %49

31:                                               ; preds = %26
  %32 = load ptr, ptr %7, align 8
  %33 = call i32 @Gia_ObjIsMuxType(ptr noundef %32)
  %34 = icmp ne i32 %33, 0
  br i1 %34, label %36, label %35

35:                                               ; preds = %31
  br label %50

36:                                               ; preds = %31
  %37 = load ptr, ptr %7, align 8
  %38 = call i32 @Gia_ObjRecognizeExor(ptr noundef %37, ptr noundef %8, ptr noundef %9)
  %39 = icmp ne i32 %38, 0
  br i1 %39, label %40, label %44

40:                                               ; preds = %36
  %41 = load ptr, ptr %6, align 8
  %42 = load i32, ptr %41, align 4
  %43 = add nsw i32 %42, 1
  store i32 %43, ptr %41, align 4
  br label %48

44:                                               ; preds = %36
  %45 = load ptr, ptr %5, align 8
  %46 = load i32, ptr %45, align 4
  %47 = add nsw i32 %46, 1
  store i32 %47, ptr %45, align 4
  br label %48

48:                                               ; preds = %44, %40
  br label %49

49:                                               ; preds = %48, %30
  br label %50

50:                                               ; preds = %49, %35
  %51 = load i32, ptr %10, align 4
  %52 = add nsw i32 %51, 1
  store i32 %52, ptr %10, align 4
  br label %13, !llvm.loop !4

53:                                               ; preds = %24
  ret void
}

; Function Attrs: nounwind uwtable
define internal i32 @Gia_ManMuxNum(ptr noundef %0) #0 {
  %2 = alloca ptr, align 8
  store ptr %0, ptr %2, align 8
  %3 = load ptr, ptr %2, align 8
  %4 = getelementptr inbounds %struct.Gia_Man_t_, ptr %3, i32 0, i32 9
  %5 = load i32, ptr %4, align 4
  ret i32 %5
}

; Function Attrs: nounwind uwtable
define internal i32 @Gia_ManXorNum(ptr noundef %0) #0 {
  %2 = alloca ptr, align 8
  store ptr %0, ptr %2, align 8
  %3 = load ptr, ptr %2, align 8
  %4 = getelementptr inbounds %struct.Gia_Man_t_, ptr %3, i32 0, i32 8
  %5 = load i32, ptr %4, align 8
  ret i32 %5
}

; Function Attrs: nounwind uwtable
define internal i32 @Gia_ManAndNotBufNum(ptr noundef %0) #0 {
  %2 = alloca ptr, align 8
  store ptr %0, ptr %2, align 8
  %3 = load ptr, ptr %2, align 8
  %4 = call i32 @Gia_ManAndNum(ptr noundef %3)
  %5 = load ptr, ptr %2, align 8
  %6 = call i32 @Gia_ManBufNum(ptr noundef %5)
  %7 = sub nsw i32 %4, %6
  ret i32 %7
}

; Function Attrs: nounwind uwtable
define void @Gia_ManPrintMuxStats(ptr noundef %0) #0 {
  %2 = alloca ptr, align 8
  %3 = alloca i32, align 4
  %4 = alloca i32, align 4
  %5 = alloca i32, align 4
  %6 = alloca i32, align 4
  store ptr %0, ptr %2, align 8
  %7 = load ptr, ptr %2, align 8
  %8 = getelementptr inbounds %struct.Gia_Man_t_, ptr %7, i32 0, i32 7
  %9 = load ptr, ptr %8, align 8
  %10 = icmp ne ptr %9, null
  br i1 %10, label %11, label %31

11:                                               ; preds = %1
  %12 = load ptr, ptr %2, align 8
  %13 = call i32 @Gia_ManAndNotBufNum(ptr noundef %12)
  %14 = load ptr, ptr %2, align 8
  %15 = call i32 @Gia_ManXorNum(ptr noundef %14)
  %16 = sub nsw i32 %13, %15
  %17 = load ptr, ptr %2, align 8
  %18 = call i32 @Gia_ManMuxNum(ptr noundef %17)
  %19 = sub nsw i32 %16, %18
  store i32 %19, ptr %3, align 4
  %20 = load ptr, ptr %2, align 8
  %21 = call i32 @Gia_ManXorNum(ptr noundef %20)
  store i32 %21, ptr %5, align 4
  %22 = load ptr, ptr %2, align 8
  %23 = call i32 @Gia_ManMuxNum(ptr noundef %22)
  store i32 %23, ptr %4, align 4
  %24 = load i32, ptr %3, align 4
  %25 = load i32, ptr %5, align 4
  %26 = mul nsw i32 3, %25
  %27 = add nsw i32 %24, %26
  %28 = load i32, ptr %4, align 4
  %29 = mul nsw i32 3, %28
  %30 = add nsw i32 %27, %29
  store i32 %30, ptr %6, align 4
  br label %43

31:                                               ; preds = %1
  %32 = load ptr, ptr %2, align 8
  call void @Gia_ManCountMuxXor(ptr noundef %32, ptr noundef %4, ptr noundef %5)
  %33 = load ptr, ptr %2, align 8
  %34 = call i32 @Gia_ManAndNotBufNum(ptr noundef %33)
  %35 = load i32, ptr %4, align 4
  %36 = mul nsw i32 3, %35
  %37 = sub nsw i32 %34, %36
  %38 = load i32, ptr %5, align 4
  %39 = mul nsw i32 3, %38
  %40 = sub nsw i32 %37, %39
  store i32 %40, ptr %3, align 4
  %41 = load ptr, ptr %2, align 8
  %42 = call i32 @Gia_ManAndNotBufNum(ptr noundef %41)
  store i32 %42, ptr %6, align 4
  br label %43

43:                                               ; preds = %31, %11
  call void (i32, ptr, ...) @Abc_Print(i32 noundef 1, ptr noundef @.str)
  %44 = load i32, ptr %5, align 4
  %45 = load i32, ptr %5, align 4
  %46 = sitofp i32 %45 to double
  %47 = fmul double 3.000000e+02, %46
  %48 = load i32, ptr %6, align 4
  %49 = sitofp i32 %48 to double
  %50 = fdiv double %47, %49
  call void (i32, ptr, ...) @Abc_Print(i32 noundef 1, ptr noundef @.str.1, i32 noundef %44, double noundef %50)
  %51 = load i32, ptr %4, align 4
  %52 = load i32, ptr %4, align 4
  %53 = sitofp i32 %52 to double
  %54 = fmul double 3.000000e+02, %53
  %55 = load i32, ptr %6, align 4
  %56 = sitofp i32 %55 to double
  %57 = fdiv double %54, %56
  call void (i32, ptr, ...) @Abc_Print(i32 noundef 1, ptr noundef @.str.2, i32 noundef %51, double noundef %57)
  %58 = load i32, ptr %3, align 4
  %59 = load i32, ptr %3, align 4
  %60 = sitofp i32 %59 to double
  %61 = fmul double 1.000000e+02, %60
  %62 = load i32, ptr %6, align 4
  %63 = sitofp i32 %62 to double
  %64 = fdiv double %61, %63
  call void (i32, ptr, ...) @Abc_Print(i32 noundef 1, ptr noundef @.str.3, i32 noundef %58, double noundef %64)
  %65 = load ptr, ptr %2, align 8
  %66 = call i32 @Gia_ManAndNotBufNum(ptr noundef %65)
  call void (i32, ptr, ...) @Abc_Print(i32 noundef 1, ptr noundef @.str.4, i32 noundef %66)
  %67 = load ptr, ptr @stdout, align 8
  %68 = call i32 @fflush(ptr noundef %67)
  ret void
}