; Function Attrs: nounwind uwtable
define void @Gia_ManPrintMuxStats(ptr noundef readonly captures(none) %0) local_unnamed_addr #0 {
  %2 = alloca ptr, align 8
  %3 = alloca ptr, align 8
  %4 = getelementptr inbounds nuw i8, ptr %0, i64 40
  %5 = load ptr, ptr %4, align 8
  %.not = icmp eq ptr %5, null
  br i1 %.not, label %24, label %6

6:                                                ; preds = %1
  %7 = getelementptr inbounds nuw i8, ptr %0, i64 24
  %8 = load i32, ptr %7, align 8
  %9 = getelementptr inbounds nuw i8, ptr %0, i64 64
  %10 = load ptr, ptr %9, align 8
  %11 = getelementptr i8, ptr %10, i64 4
  %.val3.i.i = load i32, ptr %11, align 4
  %12 = getelementptr inbounds nuw i8, ptr %0, i64 72
  %13 = load ptr, ptr %12, align 8
  %14 = getelementptr i8, ptr %13, i64 4
  %.val.i.i = load i32, ptr %14, align 4
  %15 = add i32 %.val.i.i, %.val3.i.i
  %16 = xor i32 %15, -1
  %17 = getelementptr i8, ptr %0, i64 56
  %.val.i = load i32, ptr %17, align 8
  %18 = getelementptr i8, ptr %0, i64 48
  %.val = load i32, ptr %18, align 8
  %19 = getelementptr i8, ptr %0, i64 52
  %.val18 = load i32, ptr %19, align 4
  %.neg45 = add i32 %8, %16
  %20 = add i32 %.val.i, %.val
  %21 = add i32 %20, %.val18
  %22 = sub i32 %.neg45, %21
  %reass.add = add i32 %.val18, %.val
  %reass.mul = mul i32 %reass.add, 3
  %23 = add i32 %22, %reass.mul
  br label %54

24:                                               ; preds = %1
  call void @llvm.lifetime.start.p0(i64 8, ptr nonnull %2)
  call void @llvm.lifetime.start.p0(i64 8, ptr nonnull %3)
  %25 = getelementptr i8, ptr %0, i64 32
  %26 = getelementptr inbounds nuw i8, ptr %0, i64 24
  %27 = load i32, ptr %26, align 8
  %28 = icmp sgt i32 %27, 0
  br i1 %28, label %.lr.ph.i.preheader, label %Gia_ManCountMuxXor.exit

.lr.ph.i.preheader:                               ; preds = %24
  %.val.i2049 = load ptr, ptr %25, align 8
  %.not.i50 = icmp eq ptr %.val.i2049, null
  br i1 %.not.i50, label %Gia_ManCountMuxXor.exit, label %.lr.ph

.lr.ph.i:                                         ; preds = %.sink.split.i.cont
  %.val.i20 = load ptr, ptr %25, align 8
  %29 = getelementptr inbounds nuw %struct.Gia_Obj_t_, ptr %.val.i20, i64 %indvars.iv.next.i
  %.not.i = icmp eq ptr %.val.i20, null
  br i1 %.not.i, label %Gia_ManCountMuxXor.exit, label %.lr.ph, !llvm.loop !4

.lr.ph:                                           ; preds = %.lr.ph.i.preheader, %.lr.ph.i
  %30 = phi ptr [ %29, %.lr.ph.i ], [ %.val.i2049, %.lr.ph.i.preheader ]
  %indvars.iv.i53 = phi i64 [ %indvars.iv.next.i, %.lr.ph.i ], [ 0, %.lr.ph.i.preheader ]
  %.152 = phi i32 [ %.2, %.lr.ph.i ], [ 0, %.lr.ph.i.preheader ]
  %.14051 = phi i32 [ %.241, %.lr.ph.i ], [ 0, %.lr.ph.i.preheader ]
  %.val15.i = load i64, ptr %30, align 4
  %31 = and i64 %.val15.i, 2147483648
  %.not.i.i = icmp ne i64 %31, 0
  %32 = and i64 %.val15.i, 536870911
  %33 = icmp eq i64 %32, 536870911
  %narrow.i.not.i = or i1 %.not.i.i, %33
  br i1 %narrow.i.not.i, label %.sink.split.i.cont, label %34

34:                                               ; preds = %.lr.ph
  %35 = call i32 @Gia_ObjIsMuxType(ptr noundef nonnull %30) #26
  %.not13.i = icmp eq i32 %35, 0
  br i1 %.not13.i, label %.sink.split.i.cont, label %.sink.split.i

.sink.split.i:                                    ; preds = %34
  %36 = call i32 @Gia_ObjRecognizeExor(ptr noundef nonnull %30, ptr noundef nonnull %2, ptr noundef nonnull %3) #26
  %.not14.i = icmp eq i32 %36, 0
  %.sroa.speculated = select i1 %.not14.i, i32 %.14051, i32 %.152
  %37 = add nsw i32 %.sroa.speculated, 1
  %spec.select = select i1 %.not14.i, i32 %37, i32 %.14051
  %spec.select44 = select i1 %.not14.i, i32 %.152, i32 %37
  br label %.sink.split.i.cont

.sink.split.i.cont:                               ; preds = %.sink.split.i, %34, %.lr.ph
  %.241 = phi i32 [ %.14051, %.lr.ph ], [ %.14051, %34 ], [ %spec.select, %.sink.split.i ]
  %.2 = phi i32 [ %.152, %.lr.ph ], [ %.152, %34 ], [ %spec.select44, %.sink.split.i ]
  %indvars.iv.next.i = add nuw nsw i64 %indvars.iv.i53, 1
  %38 = load i32, ptr %26, align 8
  %39 = sext i32 %38 to i64
  %40 = icmp slt i64 %indvars.iv.next.i, %39
  br i1 %40, label %.lr.ph.i, label %Gia_ManCountMuxXor.exit, !llvm.loop !4

Gia_ManCountMuxXor.exit:                          ; preds = %.sink.split.i.cont, %.lr.ph.i, %.lr.ph.i.preheader, %24
  %41 = phi i32 [ %27, %24 ], [ %27, %.lr.ph.i.preheader ], [ %38, %.lr.ph.i ], [ %38, %.sink.split.i.cont ]
  %.342 = phi i32 [ 0, %24 ], [ 0, %.lr.ph.i.preheader ], [ %.241, %.lr.ph.i ], [ %.241, %.sink.split.i.cont ]
  %.3 = phi i32 [ 0, %24 ], [ 0, %.lr.ph.i.preheader ], [ %.2, %.lr.ph.i ], [ %.2, %.sink.split.i.cont ]
  call void @llvm.lifetime.end.p0(i64 8, ptr nonnull %2)
  call void @llvm.lifetime.end.p0(i64 8, ptr nonnull %3)
  %42 = getelementptr inbounds nuw i8, ptr %0, i64 64
  %43 = load ptr, ptr %42, align 8
  %44 = getelementptr i8, ptr %43, i64 4
  %.val3.i.i21 = load i32, ptr %44, align 4
  %45 = getelementptr inbounds nuw i8, ptr %0, i64 72
  %46 = load ptr, ptr %45, align 8
  %47 = getelementptr i8, ptr %46, i64 4
  %.val.i.i22 = load i32, ptr %47, align 4
  %48 = add i32 %.val.i.i22, %.val3.i.i21
  %49 = xor i32 %48, -1
  %50 = add i32 %41, %49
  %51 = getelementptr i8, ptr %0, i64 56
  %.val.i23 = load i32, ptr %51, align 8
  %52 = sub i32 %50, %.val.i23
  %reass.add47 = add i32 %.3, %.342
  %reass.mul48 = mul i32 %reass.add47, -3
  %53 = add i32 %52, %reass.mul48
  br label %54

54:                                               ; preds = %Gia_ManCountMuxXor.exit, %6
  %.039 = phi i32 [ %.342, %Gia_ManCountMuxXor.exit ], [ %.val18, %6 ]
  %.038 = phi i32 [ %.3, %Gia_ManCountMuxXor.exit ], [ %.val, %6 ]
  %.015 = phi i32 [ %53, %Gia_ManCountMuxXor.exit ], [ %22, %6 ]
  %.0 = phi i32 [ %52, %Gia_ManCountMuxXor.exit ], [ %23, %6 ]
  call void (i32, ptr, ...) @Abc_Print(i32 poison, ptr noundef nonnull @.str)
  %55 = sitofp i32 %.038 to double
  %56 = fmul double %55, 3.000000e+02
  %57 = sitofp i32 %.0 to double
  %58 = fdiv double %56, %57
  call void (i32, ptr, ...) @Abc_Print(i32 poison, ptr noundef nonnull @.str.1, i32 noundef %.038, double noundef %58)
  %59 = sitofp i32 %.039 to double
  %60 = fmul double %59, 3.000000e+02
  %61 = fdiv double %60, %57
  call void (i32, ptr, ...) @Abc_Print(i32 poison, ptr noundef nonnull @.str.2, i32 noundef %.039, double noundef %61)
  %62 = sitofp i32 %.015 to double
  %63 = fmul double %62, 1.000000e+02
  %64 = fdiv double %63, %57
  call void (i32, ptr, ...) @Abc_Print(i32 poison, ptr noundef nonnull @.str.3, i32 noundef %.015, double noundef %64)
  %65 = getelementptr inbounds nuw i8, ptr %0, i64 24
  %66 = load i32, ptr %65, align 8
  %67 = getelementptr inbounds nuw i8, ptr %0, i64 64
  %68 = load ptr, ptr %67, align 8
  %69 = getelementptr i8, ptr %68, i64 4
  %.val3.i.i27 = load i32, ptr %69, align 4
  %70 = getelementptr inbounds nuw i8, ptr %0, i64 72
  %71 = load ptr, ptr %70, align 8
  %72 = getelementptr i8, ptr %71, i64 4
  %.val.i.i28 = load i32, ptr %72, align 4
  %73 = add i32 %.val.i.i28, %.val3.i.i27
  %74 = xor i32 %73, -1
  %75 = add i32 %66, %74
  %76 = getelementptr i8, ptr %0, i64 56
  %.val.i29 = load i32, ptr %76, align 8
  %77 = sub i32 %75, %.val.i29
  call void (i32, ptr, ...) @Abc_Print(i32 poison, ptr noundef nonnull @.str.4, i32 noundef %77)
  %78 = load ptr, ptr @stdout, align 8
  %79 = call i32 @fflush(ptr noundef %78)
  ret void
}